target datalayout = "e-m:e-p270:32:32-p271:32:32-p272:64:64-i64:64-i128:128-f80:128-n8:16:32:64-S128"
target triple = "x86_64-pc-linux-gnu"

%struct.RelOptInfo = type { i32, i32, ptr, double, i8, i8, i8, ptr, ptr, ptr, ptr, ptr, ptr, ptr, ptr, ptr, ptr, i32, i32, i32, i16, i16, ptr, ptr, ptr, ptr, ptr, ptr, ptr, ptr, i32, double, double, ptr, ptr, ptr, i32, i32, i32, i32, i8, ptr, ptr, ptr, ptr, ptr, %struct.QualCost, i32, ptr, i8, i8, ptr, ptr, ptr, ptr, i32, ptr, i8, ptr, ptr, ptr, ptr, ptr, ptr }
%struct.QualCost = type { double, double }
%struct.ForEachState = type { ptr, i32 }
%struct.List = type { i32, i32, i32, ptr, [0 x %union.ListCell] }
%union.ListCell = type { ptr }
%struct.Path = type { i32, i32, ptr, ptr, ptr, i8, i8, i32, double, i32, double, double, ptr }
%struct.GatherMergePath = type { %struct.Path, ptr, i32 }

; Function Attrs: inlinehint nounwind uwtable
define internal ptr @list_nth_cell(ptr noundef %0, i32 noundef %1) #4 {
  %3 = alloca ptr, align 8
  %4 = alloca i32, align 4
  store ptr %0, ptr %3, align 8
  store i32 %1, ptr %4, align 4
  %5 = load ptr, ptr %3, align 8
  %6 = getelementptr inbounds nuw %struct.List, ptr %5, i32 0, i32 3
  %7 = load ptr, ptr %6, align 8
  %8 = load i32, ptr %4, align 4
  %9 = sext i32 %8 to i64
  %10 = getelementptr inbounds %union.ListCell, ptr %7, i64 %9
  ret ptr %10
}

; Function Attrs: nounwind uwtable
define dso_local void @generate_gather_paths(ptr noundef %0, ptr noundef %1, i1 noundef zeroext %2) #0 {
  %4 = alloca ptr, align 8
  %5 = alloca ptr, align 8
  %6 = alloca i8, align 1
  %7 = alloca ptr, align 8
  %8 = alloca ptr, align 8
  %9 = alloca ptr, align 8
  %10 = alloca double, align 8
  %11 = alloca ptr, align 8
  %12 = alloca i32, align 4
  %13 = alloca %struct.ForEachState, align 8
  %14 = alloca ptr, align 8
  %15 = alloca ptr, align 8
  store ptr %0, ptr %4, align 8
  store ptr %1, ptr %5, align 8
  %16 = zext i1 %2 to i8
  store i8 %16, ptr %6, align 1
  call void @llvm.lifetime.start.p0(i64 8, ptr %7) #8
  call void @llvm.lifetime.start.p0(i64 8, ptr %8) #8
  call void @llvm.lifetime.start.p0(i64 8, ptr %9) #8
  call void @llvm.lifetime.start.p0(i64 8, ptr %10) #8
  call void @llvm.lifetime.start.p0(i64 8, ptr %11) #8
  store ptr null, ptr %11, align 8
  %17 = load ptr, ptr %5, align 8
  %18 = getelementptr inbounds nuw %struct.RelOptInfo, ptr %17, i32 0, i32 10
  %19 = load ptr, ptr %18, align 8
  %20 = icmp eq ptr %19, null
  br i1 %20, label %21, label %22

21:                                               ; preds = %3
  store i32 1, ptr %12, align 4
  br label %109

22:                                               ; preds = %3
  %23 = load i8, ptr %6, align 1, !range !7, !noundef !8
  %24 = trunc i8 %23 to i1
  br i1 %24, label %25, label %26

25:                                               ; preds = %22
  store ptr %10, ptr %11, align 8
  br label %26

26:                                               ; preds = %25, %22
  %27 = load ptr, ptr %5, align 8
  %28 = getelementptr inbounds nuw %struct.RelOptInfo, ptr %27, i32 0, i32 10
  %29 = load ptr, ptr %28, align 8
  %30 = call ptr @list_nth_cell(ptr noundef %29, i32 noundef 0)
  %31 = load ptr, ptr %30, align 8
  store ptr %31, ptr %7, align 8
  %32 = load ptr, ptr %7, align 8
  %33 = call double @compute_gather_rows(ptr noundef %32)
  store double %33, ptr %10, align 8
  %34 = load ptr, ptr %4, align 8
  %35 = load ptr, ptr %5, align 8
  %36 = load ptr, ptr %7, align 8
  %37 = load ptr, ptr %5, align 8
  %38 = getelementptr inbounds nuw %struct.RelOptInfo, ptr %37, i32 0, i32 7
  %39 = load ptr, ptr %38, align 8
  %40 = load ptr, ptr %11, align 8
  %41 = call ptr @create_gather_path(ptr noundef %34, ptr noundef %35, ptr noundef %36, ptr noundef %39, ptr noundef null, ptr noundef %40)
  store ptr %41, ptr %8, align 8
  %42 = load ptr, ptr %5, align 8
  %43 = load ptr, ptr %8, align 8
  call void @add_path(ptr noundef %42, ptr noundef %43)
  call void @llvm.lifetime.start.p0(i64 16, ptr %13) #8
  %44 = getelementptr inbounds nuw %struct.ForEachState, ptr %13, i32 0, i32 0
  %45 = load ptr, ptr %5, align 8
  %46 = getelementptr inbounds nuw %struct.RelOptInfo, ptr %45, i32 0, i32 10
  %47 = load ptr, ptr %46, align 8
  store ptr %47, ptr %44, align 8
  %48 = getelementptr inbounds nuw %struct.ForEachState, ptr %13, i32 0, i32 1
  store i32 0, ptr %48, align 8
  %49 = getelementptr i8, ptr %13, i64 12
  call void @llvm.memset.p0.i64(ptr align 4 %49, i8 0, i64 4, i1 false)
  br label %50

50:                                               ; preds = %104, %26
  %51 = getelementptr inbounds nuw %struct.ForEachState, ptr %13, i32 0, i32 0
  %52 = load ptr, ptr %51, align 8
  %53 = icmp ne ptr %52, null
  br i1 %53, label %54, label %71

54:                                               ; preds = %50
  %55 = getelementptr inbounds nuw %struct.ForEachState, ptr %13, i32 0, i32 1
  %56 = load i32, ptr %55, align 8
  %57 = getelementptr inbounds nuw %struct.ForEachState, ptr %13, i32 0, i32 0
  %58 = load ptr, ptr %57, align 8
  %59 = getelementptr inbounds nuw %struct.List, ptr %58, i32 0, i32 1
  %60 = load i32, ptr %59, align 4
  %61 = icmp slt i32 %56, %60
  br i1 %61, label %62, label %71

62:                                               ; preds = %54
  %63 = getelementptr inbounds nuw %struct.ForEachState, ptr %13, i32 0, i32 0
  %64 = load ptr, ptr %63, align 8
  %65 = getelementptr inbounds nuw %struct.List, ptr %64, i32 0, i32 3
  %66 = load ptr, ptr %65, align 8
  %67 = getelementptr inbounds nuw %struct.ForEachState, ptr %13, i32 0, i32 1
  %68 = load i32, ptr %67, align 8
  %69 = sext i32 %68 to i64
  %70 = getelementptr inbounds %union.ListCell, ptr %66, i64 %69
  store ptr %70, ptr %9, align 8
  br label %72

71:                                               ; preds = %54, %50
  store ptr null, ptr %9, align 8
  br label %72

72:                                               ; preds = %71, %62
  %73 = phi i32 [ 1, %62 ], [ 0, %71 ]
  %74 = icmp ne i32 %73, 0
  br i1 %74, label %76, label %75

75:                                               ; preds = %72
  store i32 2, ptr %12, align 4
  call void @llvm.lifetime.end.p0(i64 16, ptr %13) #8
  br label %108

76:                                               ; preds = %72
  call void @llvm.lifetime.start.p0(i64 8, ptr %14) #8
  %77 = load ptr, ptr %9, align 8
  %78 = load ptr, ptr %77, align 8
  store ptr %78, ptr %14, align 8
  call void @llvm.lifetime.start.p0(i64 8, ptr %15) #8
  %79 = load ptr, ptr %14, align 8
  %80 = getelementptr inbounds nuw %struct.Path, ptr %79, i32 0, i32 12
  %81 = load ptr, ptr %80, align 8
  %82 = icmp eq ptr %81, null
  br i1 %82, label %83, label %84

83:                                               ; preds = %76
  store i32 4, ptr %12, align 4
  br label %101

84:                                               ; preds = %76
  %85 = load ptr, ptr %14, align 8
  %86 = call double @compute_gather_rows(ptr noundef %85)
  store double %86, ptr %10, align 8
  %87 = load ptr, ptr %4, align 8
  %88 = load ptr, ptr %5, align 8
  %89 = load ptr, ptr %14, align 8
  %90 = load ptr, ptr %5, align 8
  %91 = getelementptr inbounds nuw %struct.RelOptInfo, ptr %90, i32 0, i32 7
  %92 = load ptr, ptr %91, align 8
  %93 = load ptr, ptr %14, align 8
  %94 = getelementptr inbounds nuw %struct.Path, ptr %93, i32 0, i32 12
  %95 = load ptr, ptr %94, align 8
  %96 = load ptr, ptr %11, align 8
  %97 = call ptr @create_gather_merge_path(ptr noundef %87, ptr noundef %88, ptr noundef %89, ptr noundef %92, ptr noundef %95, ptr noundef null, ptr noundef %96)
  store ptr %97, ptr %15, align 8
  %98 = load ptr, ptr %5, align 8
  %99 = load ptr, ptr %15, align 8
  %100 = getelementptr inbounds nuw %struct.GatherMergePath, ptr %99, i32 0, i32 0
  call void @add_path(ptr noundef %98, ptr noundef %100)
  store i32 0, ptr %12, align 4
  br label %101

101:                                              ; preds = %84, %83
  call void @llvm.lifetime.end.p0(i64 8, ptr %15) #8
  call void @llvm.lifetime.end.p0(i64 8, ptr %14) #8
  %102 = load i32, ptr %12, align 4
  switch i32 %102, label %112 [
    i32 0, label %103
    i32 4, label %104
  ]

103:                                              ; preds = %101
  br label %104

104:                                              ; preds = %103, %101
  %105 = getelementptr inbounds nuw %struct.ForEachState, ptr %13, i32 0, i32 1
  %106 = load i32, ptr %105, align 8
  %107 = add i32 %106, 1
  store i32 %107, ptr %105, align 8
  br label %50, !llvm.loop !24

108:                                              ; preds = %75
  store i32 0, ptr %12, align 4
  br label %109

109:                                              ; preds = %108, %21
  call void @llvm.lifetime.end.p0(i64 8, ptr %11) #8
  call void @llvm.lifetime.end.p0(i64 8, ptr %10) #8
  call void @llvm.lifetime.end.p0(i64 8, ptr %9) #8
  call void @llvm.lifetime.end.p0(i64 8, ptr %8) #8
  call void @llvm.lifetime.end.p0(i64 8, ptr %7) #8
  %110 = load i32, ptr %12, align 4
  switch i32 %110, label %112 [
    i32 0, label %111
    i32 1, label %111
  ]

111:                                              ; preds = %109, %109
  ret void

112:                                              ; preds = %109, %101
  unreachable
}