; Function Attrs: nounwind uwtable
define dso_local void @generate_gather_paths(ptr noundef %0, ptr noundef %1, i1 noundef zeroext %2) local_unnamed_addr #0 {
  %4 = alloca double, align 8
  call void @llvm.lifetime.start.p0(i64 8, ptr nonnull %4) #9
  %5 = getelementptr inbounds nuw i8, ptr %1, i64 56
  %6 = load ptr, ptr %5, align 8
  %7 = icmp eq ptr %6, null
  br i1 %7, label %.thread, label %8

8:                                                ; preds = %3
  %spec.select = select i1 %2, ptr %4, ptr null
  %9 = getelementptr i8, ptr %6, i64 16
  %.val = load ptr, ptr %9, align 8
  %10 = load ptr, ptr %.val, align 8
  %11 = tail call double @compute_gather_rows(ptr noundef %10) #9
  store double %11, ptr %4, align 8
  %12 = getelementptr inbounds nuw i8, ptr %1, i64 32
  %13 = load ptr, ptr %12, align 8
  %14 = call ptr @create_gather_path(ptr noundef %0, ptr noundef nonnull %1, ptr noundef %10, ptr noundef %13, ptr noundef null, ptr noundef %spec.select) #9
  call void @add_path(ptr noundef nonnull %1, ptr noundef %14) #9
  %15 = load ptr, ptr %5, align 8
  %16 = getelementptr inbounds nuw i8, ptr %15, i64 4
  %.not = icmp eq ptr %15, null
  br i1 %.not, label %.thread, label %.lr.ph

.lr.ph:                                           ; preds = %8
  %17 = getelementptr inbounds nuw i8, ptr %15, i64 16
  %18 = load i32, ptr %16, align 4
  %19 = icmp sgt i32 %18, 0
  br i1 %19, label %.lr.ph34, label %.thread

.lr.ph34:                                         ; preds = %.lr.ph, %32
  %20 = phi i32 [ %33, %32 ], [ %18, %.lr.ph ]
  %indvars.iv = phi i64 [ %indvars.iv.next, %32 ], [ 0, %.lr.ph ]
  %21 = load ptr, ptr %17, align 8
  %22 = getelementptr inbounds nuw %union.ListCell, ptr %21, i64 %indvars.iv
  %23 = load ptr, ptr %22, align 8
  %24 = getelementptr inbounds nuw i8, ptr %23, i64 72
  %25 = load ptr, ptr %24, align 8
  %26 = icmp eq ptr %25, null
  br i1 %26, label %32, label %27

27:                                               ; preds = %.lr.ph34
  %28 = call double @compute_gather_rows(ptr noundef nonnull %23) #9
  store double %28, ptr %4, align 8
  %29 = load ptr, ptr %12, align 8
  %30 = load ptr, ptr %24, align 8
  %31 = call ptr @create_gather_merge_path(ptr noundef %0, ptr noundef nonnull %1, ptr noundef nonnull %23, ptr noundef %29, ptr noundef %30, ptr noundef null, ptr noundef %spec.select) #9
  call void @add_path(ptr noundef nonnull %1, ptr noundef %31) #9
  %.pre = load i32, ptr %16, align 4
  br label %32

32:                                               ; preds = %.lr.ph34, %27
  %33 = phi i32 [ %20, %.lr.ph34 ], [ %.pre, %27 ]
  %indvars.iv.next = add nuw nsw i64 %indvars.iv, 1
  %34 = sext i32 %33 to i64
  %35 = icmp slt i64 %indvars.iv.next, %34
  br i1 %35, label %.lr.ph34, label %.thread

.thread:                                          ; preds = %32, %8, %.lr.ph, %3
  call void @llvm.lifetime.end.p0(i64 8, ptr nonnull %4) #9
  ret void
}